; Function Attrs: mustprogress uwtable
define noundef zeroext i1 @_ZN6Assimp11SMDImporter14ParseSignedIntEPKcPS2_S2_Ri(ptr noundef nonnull readnone align 8 captures(none) dereferenceable(226) %0, ptr noundef %1, ptr noundef writeonly captures(address_is_null) %2, ptr noundef %3, ptr noundef nonnull writeonly align 4 captures(none) dereferenceable(4) %4) local_unnamed_addr #3 align 2 {
  %6 = alloca ptr, align 8
  %7 = ptrtoint ptr %1 to i64
  %8 = ptrtoint ptr %3 to i64
  %9 = sub i64 %8, %7
  %scevgep.i.i = getelementptr i8, ptr %1, i64 %9
  br label %10

10:                                               ; preds = %13, %5
  %.0.i.i = phi ptr [ %1, %5 ], [ %14, %13 ]
  %11 = load i8, ptr %.0.i.i, align 1
  switch i8 %11, label %.critedge.i.i [
    i8 32, label %12
    i8 9, label %12
  ]

12:                                               ; preds = %10, %10
  %.not.i.i = icmp eq ptr %.0.i.i, %3
  br i1 %.not.i.i, label %.critedge.i.ithread-pre-split, label %13

13:                                               ; preds = %12
  %14 = getelementptr inbounds nuw i8, ptr %.0.i.i, i64 1
  br label %10, !llvm.loop !88

.critedge.i.ithread-pre-split:                    ; preds = %12
  %.pr = load i8, ptr %scevgep.i.i, align 1
  br label %.critedge.i.i

.critedge.i.i:                                    ; preds = %10, %.critedge.i.ithread-pre-split
  %15 = phi i8 [ %.pr, %.critedge.i.ithread-pre-split ], [ %11, %10 ]
  %.0.lcssa.i.i = phi ptr [ %scevgep.i.i, %.critedge.i.ithread-pre-split ], [ %.0.i.i, %10 ]
  %16 = icmp ult i8 %15, 14
  br i1 %16, label %switch.hole_check, label %17

17:                                               ; preds = %switch.hole_check, %.critedge.i.i
  call void @llvm.lifetime.start.p0(i64 8, ptr nonnull %6)
  store ptr %.0.lcssa.i.i, ptr %6, align 8
  %18 = load i8, ptr %.0.lcssa.i.i, align 1
  %19 = icmp eq i8 %18, 45
  switch i8 %18, label %22 [
    i8 45, label %20
    i8 43, label %20
  ]

20:                                               ; preds = %17, %17
  %21 = getelementptr inbounds nuw i8, ptr %.0.lcssa.i.i, i64 1
  store ptr %21, ptr %6, align 8
  %.pre.i = load i8, ptr %21, align 1
  br label %22

22:                                               ; preds = %20, %17
  %23 = phi i8 [ %18, %17 ], [ %.pre.i, %20 ]
  %24 = phi ptr [ %.0.lcssa.i.i, %17 ], [ %21, %20 ]
  %25 = add i8 %23, -58
  %or.cond11.i.i = icmp ult i8 %25, -10
  br i1 %or.cond11.i.i, label %._crit_edge.i.i, label %.lr.ph.i.i

.lr.ph.i.i:                                       ; preds = %22, %.lr.ph.i.i
  %26 = phi i8 [ %31, %.lr.ph.i.i ], [ %23, %22 ]
  %.013.i.i = phi i32 [ %29, %.lr.ph.i.i ], [ 0, %22 ]
  %.0812.i.i = phi ptr [ %30, %.lr.ph.i.i ], [ %24, %22 ]
  %27 = mul i32 %.013.i.i, 10
  %narrow.i.i = add nsw i8 %26, -48
  %28 = zext nneg i8 %narrow.i.i to i32
  %29 = add i32 %27, %28
  %30 = getelementptr inbounds nuw i8, ptr %.0812.i.i, i64 1
  %31 = load i8, ptr %30, align 1
  %32 = add i8 %31, -58
  %or.cond.i.i = icmp ult i8 %32, -10
  br i1 %or.cond.i.i, label %._crit_edge.i.i, label %.lr.ph.i.i, !llvm.loop !89

._crit_edge.i.i:                                  ; preds = %.lr.ph.i.i, %22
  %.08.lcssa.i.i = phi ptr [ %24, %22 ], [ %30, %.lr.ph.i.i ]
  %.0.lcssa.i.i4 = phi i32 [ 0, %22 ], [ %29, %.lr.ph.i.i ]
  %.not.i.i5 = icmp eq ptr %2, null
  br i1 %.not.i.i5, label %_ZN6Assimp9strtoul10EPKcPS1_.exit.i, label %33

33:                                               ; preds = %._crit_edge.i.i
  store ptr %.08.lcssa.i.i, ptr %2, align 8
  br label %_ZN6Assimp9strtoul10EPKcPS1_.exit.i

_ZN6Assimp9strtoul10EPKcPS1_.exit.i:              ; preds = %33, %._crit_edge.i.i
  br i1 %19, label %34, label %_ZN6Assimp8strtol10EPKcPS1_.exit

34:                                               ; preds = %_ZN6Assimp9strtoul10EPKcPS1_.exit.i
  %35 = add i32 %.0.lcssa.i.i4, 2147483647
  %or.cond.i = icmp ult i32 %35, -2
  br i1 %or.cond.i, label %36, label %38

36:                                               ; preds = %34
  %37 = sub nsw i32 0, %.0.lcssa.i.i4
  br label %_ZN6Assimp8strtol10EPKcPS1_.exit

38:                                               ; preds = %34
  %39 = tail call noundef ptr @_ZN6Assimp13DefaultLogger3getEv()
  call void @_ZN6Assimp6Logger4warnIJRA24_KcRPS2_RA47_S2_EEEvDpOT_(ptr noundef nonnull align 8 dereferenceable(12) %39, ptr noundef nonnull align 1 dereferenceable(24) @.str.62, ptr noundef nonnull align 8 dereferenceable(8) %6, ptr noundef nonnull align 1 dereferenceable(47) @.str.63)
  br label %_ZN6Assimp8strtol10EPKcPS1_.exit

_ZN6Assimp8strtol10EPKcPS1_.exit:                 ; preds = %_ZN6Assimp9strtoul10EPKcPS1_.exit.i, %36, %38
  %.0.i = phi i32 [ %37, %36 ], [ %.0.lcssa.i.i4, %38 ], [ %.0.lcssa.i.i4, %_ZN6Assimp9strtoul10EPKcPS1_.exit.i ]
  call void @llvm.lifetime.end.p0(i64 8, ptr nonnull %6)
  store i32 %.0.i, ptr %4, align 4
  br label %_ZN6Assimp10SkipSpacesIcEEbPPKT_S3_.exit

switch.hole_check:                                ; preds = %.critedge.i.i
  %switch.maskindex = zext nneg i8 %15 to i16
  %switch.shifted = lshr i16 13313, %switch.maskindex
  %switch.lobit = trunc i16 %switch.shifted to i1
  br i1 %switch.lobit, label %_ZN6Assimp10SkipSpacesIcEEbPPKT_S3_.exit, label %17

_ZN6Assimp10SkipSpacesIcEEbPPKT_S3_.exit:         ; preds = %switch.hole_check, %_ZN6Assimp8strtol10EPKcPS1_.exit
  %40 = phi i1 [ true, %_ZN6Assimp8strtol10EPKcPS1_.exit ], [ false, %switch.hole_check ]
  ret i1 %40
}